target datalayout = "e-m:e-p270:32:32-p271:32:32-p272:64:64-i64:64-i128:128-f80:128-n8:16:32:64-S128"
target triple = "x86_64-pc-linux-gnu"

@.str.1 = private unnamed_addr constant [3 x i8] c"-h\00", align 1

; Function Attrs: nounwind uwtable
define dso_local void @show_usage_if_asked(i32 noundef %0, ptr noundef %1, ptr noundef %2) #0 {
  %4 = alloca i32, align 4
  %5 = alloca ptr, align 8
  %6 = alloca ptr, align 8
  store i32 %0, ptr %4, align 4, !tbaa !10
  store ptr %1, ptr %5, align 8, !tbaa !12
  store ptr %2, ptr %6, align 8, !tbaa !8
  %7 = load i32, ptr %4, align 4, !tbaa !10
  %8 = icmp eq i32 %7, 2
  br i1 %8, label %9, label %17

9:                                                ; preds = %3
  %10 = load ptr, ptr %5, align 8, !tbaa !12
  %11 = getelementptr inbounds ptr, ptr %10, i64 1
  %12 = load ptr, ptr %11, align 8, !tbaa !8
  %13 = call i32 @strcmp(ptr noundef %12, ptr noundef @.str.1) #13
  %14 = icmp ne i32 %13, 0
  br i1 %14, label %17, label %15

15:                                               ; preds = %9
  %16 = load ptr, ptr %6, align 8, !tbaa !8
  call void (ptr, ...) @show_usage_if_asked_helper(ptr noundef %16)
  br label %17

17:                                               ; preds = %15, %9, %3
  ret void
}