; Function Attrs: nounwind uwtable
define dso_local void @show_usage_if_asked(i32 noundef %0, ptr noundef readonly captures(none) %1, ptr noundef %2) local_unnamed_addr #6 {
  %4 = icmp eq i32 %0, 2
  br i1 %4, label %sub_0, label %.tail.thread

sub_0:                                            ; preds = %3
  %5 = getelementptr inbounds nuw i8, ptr %1, i64 8
  %6 = load ptr, ptr %5, align 8, !tbaa !8
  %7 = load i8, ptr %6, align 1
  %.not2 = icmp eq i8 %7, 45
  br i1 %.not2, label %sub_1, label %.tail.thread

sub_1:                                            ; preds = %sub_0
  %8 = getelementptr inbounds nuw i8, ptr %6, i64 1
  %9 = load i8, ptr %8, align 1
  %.not3 = icmp eq i8 %9, 104
  br i1 %.not3, label %.tail, label %.tail.thread

.tail:                                            ; preds = %sub_1
  %10 = getelementptr inbounds nuw i8, ptr %6, i64 2
  %11 = load i8, ptr %10, align 1
  %12 = icmp eq i8 %11, 0
  br i1 %12, label %13, label %.tail.thread

13:                                               ; preds = %.tail
  tail call void (ptr, ...) @show_usage_if_asked_helper(ptr noundef %2)
  unreachable

.tail.thread:                                     ; preds = %sub_1, %sub_0, %.tail, %3
  ret void
}